target datalayout = "e-m:e-p270:32:32-p271:32:32-p272:64:64-i64:64-i128:128-f80:128-n8:16:32:64-S128"
target triple = "x86_64-unknown-linux-gnu"

%"class.google::protobuf::io::ZeroCopyInputStream" = type { ptr }
%"class.google::protobuf::io::LimitingInputStream" = type { %"class.google::protobuf::io::ZeroCopyInputStream", ptr, i64, i64 }

; Function Attrs: mustprogress uwtable
define noundef i64 @_ZNK6google8protobuf2io19LimitingInputStream9ByteCountEv(ptr noundef nonnull align 8 dereferenceable(32) %this) unnamed_addr #5 align 2 {
entry:
  %retval = alloca i64, align 8
  %this.addr = alloca ptr, align 8
  store ptr %this, ptr %this.addr, align 8
  %this1 = load ptr, ptr %this.addr, align 8
  %limit_ = getelementptr inbounds %"class.google::protobuf::io::LimitingInputStream", ptr %this1, i32 0, i32 2
  %0 = load i64, ptr %limit_, align 8
  %cmp = icmp slt i64 %0, 0
  br i1 %cmp, label %if.then, label %if.else

if.then:                                          ; preds = %entry
  %input_ = getelementptr inbounds %"class.google::protobuf::io::LimitingInputStream", ptr %this1, i32 0, i32 1
  %1 = load ptr, ptr %input_, align 8
  %vtable = load ptr, ptr %1, align 8
  %vfn = getelementptr inbounds ptr, ptr %vtable, i64 5
  %2 = load ptr, ptr %vfn, align 8
  %call = call noundef i64 %2(ptr noundef nonnull align 8 dereferenceable(8) %1)
  %limit_2 = getelementptr inbounds %"class.google::protobuf::io::LimitingInputStream", ptr %this1, i32 0, i32 2
  %3 = load i64, ptr %limit_2, align 8
  %add = add nsw i64 %call, %3
  %prior_bytes_read_ = getelementptr inbounds %"class.google::protobuf::io::LimitingInputStream", ptr %this1, i32 0, i32 3
  %4 = load i64, ptr %prior_bytes_read_, align 8
  %sub = sub nsw i64 %add, %4
  store i64 %sub, ptr %retval, align 8
  br label %return

if.else:                                          ; preds = %entry
  %input_3 = getelementptr inbounds %"class.google::protobuf::io::LimitingInputStream", ptr %this1, i32 0, i32 1
  %5 = load ptr, ptr %input_3, align 8
  %vtable4 = load ptr, ptr %5, align 8
  %vfn5 = getelementptr inbounds ptr, ptr %vtable4, i64 5
  %6 = load ptr, ptr %vfn5, align 8
  %call6 = call noundef i64 %6(ptr noundef nonnull align 8 dereferenceable(8) %5)
  %prior_bytes_read_7 = getelementptr inbounds %"class.google::protobuf::io::LimitingInputStream", ptr %this1, i32 0, i32 3
  %7 = load i64, ptr %prior_bytes_read_7, align 8
  %sub8 = sub nsw i64 %call6, %7
  store i64 %sub8, ptr %retval, align 8
  br label %return

return:                                           ; preds = %if.else, %if.then
  %8 = load i64, ptr %retval, align 8
  ret i64 %8
}