; Function Attrs: mustprogress uwtable
define noundef i64 @_ZNK6google8protobuf2io19LimitingInputStream9ByteCountEv(ptr nocapture noundef nonnull readonly align 8 dereferenceable(32) %this) unnamed_addr #5 align 2 {
entry:
  %limit_ = getelementptr inbounds i8, ptr %this, i64 16
  %0 = load i64, ptr %limit_, align 8
  %cmp = icmp slt i64 %0, 0
  %input_ = getelementptr inbounds i8, ptr %this, i64 8
  %1 = load ptr, ptr %input_, align 8
  %vtable = load ptr, ptr %1, align 8
  %vfn = getelementptr inbounds i8, ptr %vtable, i64 40
  %2 = load ptr, ptr %vfn, align 8
  %call = tail call noundef i64 %2(ptr noundef nonnull align 8 dereferenceable(8) %1)
  %3 = load i64, ptr %limit_, align 8
  %add = select i1 %cmp, i64 %3, i64 0
  %call.sink = add nsw i64 %call, %add
  %prior_bytes_read_7 = getelementptr inbounds i8, ptr %this, i64 24
  %4 = load i64, ptr %prior_bytes_read_7, align 8
  %sub8 = sub i64 %call.sink, %4
  ret i64 %sub8
}